target datalayout = "e-m:e-p270:32:32-p271:32:32-p272:64:64-i64:64-i128:128-f80:128-n8:16:32:64-S128"
target triple = "x86_64-pc-linux-gnu"

%struct.grep_opt = type { ptr, ptr, ptr, ptr, ptr, ptr, i32, i32, i32, i32, i32, i32, i32, i32, i32, i32, i32, i32, i32, i32, i32, i32, i32, i32, i32, i32, i32, i32, i32, i32, i32, i32, [9 x [75 x i8]], i32, i32, i32, i32, i32, i32, i32, ptr, ptr, ptr }

@color_grep_slots = internal global [9 x ptr] [ptr @.str.15, ptr @.str.16, ptr @.str.17, ptr @.str.18, ptr @.str.19, ptr @.str.20, ptr @.str.21, ptr @.str.22, ptr @.str.23], align 16
@.str.1 = private unnamed_addr constant [20 x i8] c"grep.extendedregexp\00", align 1
@.str.2 = private unnamed_addr constant [17 x i8] c"grep.patterntype\00", align 1
@.str.3 = private unnamed_addr constant [16 x i8] c"grep.linenumber\00", align 1
@.str.4 = private unnamed_addr constant [12 x i8] c"grep.column\00", align 1
@.str.5 = private unnamed_addr constant [14 x i8] c"grep.fullname\00", align 1
@.str.6 = private unnamed_addr constant [11 x i8] c"color.grep\00", align 1
@.str.7 = private unnamed_addr constant [17 x i8] c"color.grep.match\00", align 1
@.str.8 = private unnamed_addr constant [24 x i8] c"color.grep.matchcontext\00", align 1
@.str.9 = private unnamed_addr constant [25 x i8] c"color.grep.matchselected\00", align 1
@.str.10 = private unnamed_addr constant [12 x i8] c"color.grep.\00", align 1
@.str.13 = private unnamed_addr constant [8 x i8] c"default\00", align 1
@.str.24 = private unnamed_addr constant [6 x i8] c"basic\00", align 1
@.str.25 = private unnamed_addr constant [9 x i8] c"extended\00", align 1
@.str.26 = private unnamed_addr constant [6 x i8] c"fixed\00", align 1
@.str.27 = private unnamed_addr constant [5 x i8] c"perl\00", align 1
@.str.28 = private unnamed_addr constant [20 x i8] c"bad %s argument: %s\00", align 1

; Function Attrs: inlinehint nounwind uwtable
define internal i32 @const_error() #2 {
  ret i32 -1
}

; Function Attrs: inlinehint nounwind uwtable
define internal zeroext i1 @skip_prefix(ptr noundef %0, ptr noundef %1, ptr noundef %2) #2 {
  %4 = alloca i1, align 1
  %5 = alloca ptr, align 8
  %6 = alloca ptr, align 8
  %7 = alloca ptr, align 8
  store ptr %0, ptr %5, align 8, !tbaa !9
  store ptr %1, ptr %6, align 8, !tbaa !9
  store ptr %2, ptr %7, align 8, !tbaa !34
  br label %8

8:                                                ; preds = %16, %3
  %9 = load ptr, ptr %6, align 8, !tbaa !9
  %10 = load i8, ptr %9, align 1, !tbaa !36
  %11 = icmp ne i8 %10, 0
  br i1 %11, label %15, label %12

12:                                               ; preds = %8
  %13 = load ptr, ptr %5, align 8, !tbaa !9
  %14 = load ptr, ptr %7, align 8, !tbaa !34
  store ptr %13, ptr %14, align 8, !tbaa !9
  store i1 true, ptr %4, align 1
  br label %27

15:                                               ; preds = %8
  br label %16

16:                                               ; preds = %15
  %17 = load ptr, ptr %5, align 8, !tbaa !9
  %18 = getelementptr inbounds nuw i8, ptr %17, i32 1
  store ptr %18, ptr %5, align 8, !tbaa !9
  %19 = load i8, ptr %17, align 1, !tbaa !36
  %20 = sext i8 %19 to i32
  %21 = load ptr, ptr %6, align 8, !tbaa !9
  %22 = getelementptr inbounds nuw i8, ptr %21, i32 1
  store ptr %22, ptr %6, align 8, !tbaa !9
  %23 = load i8, ptr %21, align 1, !tbaa !36
  %24 = sext i8 %23 to i32
  %25 = icmp eq i32 %20, %24
  br i1 %25, label %8, label %26, !llvm.loop !37

26:                                               ; preds = %16
  store i1 false, ptr %4, align 1
  br label %27

27:                                               ; preds = %26, %12
  %28 = load i1, ptr %4, align 1
  ret i1 %28
}

; Function Attrs: nounwind uwtable
define internal i32 @parse_pattern_type_arg(ptr noundef %0, ptr noundef %1) #0 {
  %3 = alloca i32, align 4
  %4 = alloca ptr, align 8
  %5 = alloca ptr, align 8
  store ptr %0, ptr %4, align 8, !tbaa !9
  store ptr %1, ptr %5, align 8, !tbaa !9
  %6 = load ptr, ptr %5, align 8, !tbaa !9
  %7 = call i32 @strcmp(ptr noundef %6, ptr noundef @.str.13) #12
  %8 = icmp ne i32 %7, 0
  br i1 %8, label %10, label %9

9:                                                ; preds = %2
  store i32 0, ptr %3, align 4
  br label %37

10:                                               ; preds = %2
  %11 = load ptr, ptr %5, align 8, !tbaa !9
  %12 = call i32 @strcmp(ptr noundef %11, ptr noundef @.str.24) #12
  %13 = icmp ne i32 %12, 0
  br i1 %13, label %15, label %14

14:                                               ; preds = %10
  store i32 1, ptr %3, align 4
  br label %37

15:                                               ; preds = %10
  %16 = load ptr, ptr %5, align 8, !tbaa !9
  %17 = call i32 @strcmp(ptr noundef %16, ptr noundef @.str.25) #12
  %18 = icmp ne i32 %17, 0
  br i1 %18, label %20, label %19

19:                                               ; preds = %15
  store i32 2, ptr %3, align 4
  br label %37

20:                                               ; preds = %15
  %21 = load ptr, ptr %5, align 8, !tbaa !9
  %22 = call i32 @strcmp(ptr noundef %21, ptr noundef @.str.26) #12
  %23 = icmp ne i32 %22, 0
  br i1 %23, label %25, label %24

24:                                               ; preds = %20
  store i32 3, ptr %3, align 4
  br label %37

25:                                               ; preds = %20
  %26 = load ptr, ptr %5, align 8, !tbaa !9
  %27 = call i32 @strcmp(ptr noundef %26, ptr noundef @.str.27) #12
  %28 = icmp ne i32 %27, 0
  br i1 %28, label %30, label %29

29:                                               ; preds = %25
  store i32 4, ptr %3, align 4
  br label %37

30:                                               ; preds = %25
  br label %31

31:                                               ; preds = %30
  br label %32

32:                                               ; preds = %31
  br label %33

33:                                               ; preds = %32
  br label %34

34:                                               ; preds = %33
  %35 = load ptr, ptr %4, align 8, !tbaa !9
  %36 = load ptr, ptr %5, align 8, !tbaa !9
  call void (ptr, ...) @die(ptr noundef @.str.28, ptr noundef %35, ptr noundef %36) #13
  unreachable

37:                                               ; preds = %29, %24, %19, %14, %9
  %38 = load i32, ptr %3, align 4
  ret i32 %38
}

; Function Attrs: nounwind uwtable
define dso_local i32 @grep_config(ptr noundef %0, ptr noundef %1, ptr noundef %2, ptr noundef %3) #0 {
  %5 = alloca i32, align 4
  %6 = alloca ptr, align 8
  %7 = alloca ptr, align 8
  %8 = alloca ptr, align 8
  %9 = alloca ptr, align 8
  %10 = alloca ptr, align 8
  %11 = alloca ptr, align 8
  %12 = alloca i32, align 4
  %13 = alloca i32, align 4
  %14 = alloca ptr, align 8
  store ptr %0, ptr %6, align 8, !tbaa !9
  store ptr %1, ptr %7, align 8, !tbaa !9
  store ptr %2, ptr %8, align 8, !tbaa !16
  store ptr %3, ptr %9, align 8, !tbaa !18
  call void @llvm.lifetime.start.p0(i64 8, ptr %10) #11
  %15 = load ptr, ptr %9, align 8, !tbaa !18
  store ptr %15, ptr %10, align 8, !tbaa !19
  call void @llvm.lifetime.start.p0(i64 8, ptr %11) #11
  %16 = load ptr, ptr %6, align 8, !tbaa !9
  %17 = load ptr, ptr %7, align 8, !tbaa !9
  %18 = call i32 @userdiff_config(ptr noundef %16, ptr noundef %17)
  %19 = icmp slt i32 %18, 0
  br i1 %19, label %20, label %21

20:                                               ; preds = %4
  store i32 -1, ptr %5, align 4
  store i32 1, ptr %12, align 4
  br label %132

21:                                               ; preds = %4
  %22 = load ptr, ptr %6, align 8, !tbaa !9
  %23 = call i32 @strcmp(ptr noundef %22, ptr noundef @.str.1) #12
  %24 = icmp ne i32 %23, 0
  br i1 %24, label %31, label %25

25:                                               ; preds = %21
  %26 = load ptr, ptr %6, align 8, !tbaa !9
  %27 = load ptr, ptr %7, align 8, !tbaa !9
  %28 = call i32 @git_config_bool(ptr noundef %26, ptr noundef %27)
  %29 = load ptr, ptr %10, align 8, !tbaa !19
  %30 = getelementptr inbounds nuw %struct.grep_opt, ptr %29, i32 0, i32 29
  store i32 %28, ptr %30, align 4, !tbaa !21
  store i32 0, ptr %5, align 4
  store i32 1, ptr %12, align 4
  br label %132

31:                                               ; preds = %21
  %32 = load ptr, ptr %6, align 8, !tbaa !9
  %33 = call i32 @strcmp(ptr noundef %32, ptr noundef @.str.2) #12
  %34 = icmp ne i32 %33, 0
  br i1 %34, label %41, label %35

35:                                               ; preds = %31
  %36 = load ptr, ptr %6, align 8, !tbaa !9
  %37 = load ptr, ptr %7, align 8, !tbaa !9
  %38 = call i32 @parse_pattern_type_arg(ptr noundef %36, ptr noundef %37)
  %39 = load ptr, ptr %10, align 8, !tbaa !19
  %40 = getelementptr inbounds nuw %struct.grep_opt, ptr %39, i32 0, i32 30
  store i32 %38, ptr %40, align 8, !tbaa !28
  store i32 0, ptr %5, align 4
  store i32 1, ptr %12, align 4
  br label %132

41:                                               ; preds = %31
  %42 = load ptr, ptr %6, align 8, !tbaa !9
  %43 = call i32 @strcmp(ptr noundef %42, ptr noundef @.str.3) #12
  %44 = icmp ne i32 %43, 0
  br i1 %44, label %51, label %45

45:                                               ; preds = %41
  %46 = load ptr, ptr %6, align 8, !tbaa !9
  %47 = load ptr, ptr %7, align 8, !tbaa !9
  %48 = call i32 @git_config_bool(ptr noundef %46, ptr noundef %47)
  %49 = load ptr, ptr %10, align 8, !tbaa !19
  %50 = getelementptr inbounds nuw %struct.grep_opt, ptr %49, i32 0, i32 6
  store i32 %48, ptr %50, align 8, !tbaa !29
  store i32 0, ptr %5, align 4
  store i32 1, ptr %12, align 4
  br label %132

51:                                               ; preds = %41
  %52 = load ptr, ptr %6, align 8, !tbaa !9
  %53 = call i32 @strcmp(ptr noundef %52, ptr noundef @.str.4) #12
  %54 = icmp ne i32 %53, 0
  br i1 %54, label %61, label %55

55:                                               ; preds = %51
  %56 = load ptr, ptr %6, align 8, !tbaa !9
  %57 = load ptr, ptr %7, align 8, !tbaa !9
  %58 = call i32 @git_config_bool(ptr noundef %56, ptr noundef %57)
  %59 = load ptr, ptr %10, align 8, !tbaa !19
  %60 = getelementptr inbounds nuw %struct.grep_opt, ptr %59, i32 0, i32 7
  store i32 %58, ptr %60, align 4, !tbaa !30
  store i32 0, ptr %5, align 4
  store i32 1, ptr %12, align 4
  br label %132

61:                                               ; preds = %51
  %62 = load ptr, ptr %6, align 8, !tbaa !9
  %63 = call i32 @strcmp(ptr noundef %62, ptr noundef @.str.5) #12
  %64 = icmp ne i32 %63, 0
  br i1 %64, label %74, label %65

65:                                               ; preds = %61
  %66 = load ptr, ptr %6, align 8, !tbaa !9
  %67 = load ptr, ptr %7, align 8, !tbaa !9
  %68 = call i32 @git_config_bool(ptr noundef %66, ptr noundef %67)
  %69 = icmp ne i32 %68, 0
  %70 = xor i1 %69, true
  %71 = zext i1 %70 to i32
  %72 = load ptr, ptr %10, align 8, !tbaa !19
  %73 = getelementptr inbounds nuw %struct.grep_opt, ptr %72, i32 0, i32 21
  store i32 %71, ptr %73, align 4, !tbaa !31
  store i32 0, ptr %5, align 4
  store i32 1, ptr %12, align 4
  br label %132

74:                                               ; preds = %61
  %75 = load ptr, ptr %6, align 8, !tbaa !9
  %76 = call i32 @strcmp(ptr noundef %75, ptr noundef @.str.6) #12
  %77 = icmp ne i32 %76, 0
  br i1 %77, label %84, label %78

78:                                               ; preds = %74
  %79 = load ptr, ptr %6, align 8, !tbaa !9
  %80 = load ptr, ptr %7, align 8, !tbaa !9
  %81 = call i32 @git_config_colorbool(ptr noundef %79, ptr noundef %80)
  %82 = load ptr, ptr %10, align 8, !tbaa !19
  %83 = getelementptr inbounds nuw %struct.grep_opt, ptr %82, i32 0, i32 25
  store i32 %81, ptr %83, align 4, !tbaa !32
  br label %84

84:                                               ; preds = %78, %74
  %85 = load ptr, ptr %6, align 8, !tbaa !9
  %86 = call i32 @strcmp(ptr noundef %85, ptr noundef @.str.7) #12
  %87 = icmp ne i32 %86, 0
  br i1 %87, label %103, label %88

88:                                               ; preds = %84
  %89 = load ptr, ptr %7, align 8, !tbaa !9
  %90 = load ptr, ptr %8, align 8, !tbaa !16
  %91 = load ptr, ptr %9, align 8, !tbaa !18
  %92 = call i32 @grep_config(ptr noundef @.str.8, ptr noundef %89, ptr noundef %90, ptr noundef %91)
  %93 = icmp slt i32 %92, 0
  br i1 %93, label %94, label %95

94:                                               ; preds = %88
  store i32 -1, ptr %5, align 4
  store i32 1, ptr %12, align 4
  br label %132

95:                                               ; preds = %88
  %96 = load ptr, ptr %7, align 8, !tbaa !9
  %97 = load ptr, ptr %8, align 8, !tbaa !16
  %98 = load ptr, ptr %9, align 8, !tbaa !18
  %99 = call i32 @grep_config(ptr noundef @.str.9, ptr noundef %96, ptr noundef %97, ptr noundef %98)
  %100 = icmp slt i32 %99, 0
  br i1 %100, label %101, label %102

101:                                              ; preds = %95
  store i32 -1, ptr %5, align 4
  store i32 1, ptr %12, align 4
  br label %132

102:                                              ; preds = %95
  br label %131

103:                                              ; preds = %84
  %104 = load ptr, ptr %6, align 8, !tbaa !9
  %105 = call zeroext i1 @skip_prefix(ptr noundef %104, ptr noundef @.str.10, ptr noundef %11)
  br i1 %105, label %106, label %130

106:                                              ; preds = %103
  call void @llvm.lifetime.start.p0(i64 4, ptr %13) #11
  %107 = load ptr, ptr %11, align 8, !tbaa !9
  %108 = call i32 @lookup_config(ptr noundef @color_grep_slots, i32 noundef 9, ptr noundef %107)
  store i32 %108, ptr %13, align 4, !tbaa !33
  call void @llvm.lifetime.start.p0(i64 8, ptr %14) #11
  %109 = load i32, ptr %13, align 4, !tbaa !33
  %110 = icmp slt i32 %109, 0
  br i1 %110, label %111, label %112

111:                                              ; preds = %106
  store i32 -1, ptr %5, align 4
  store i32 1, ptr %12, align 4
  br label %129

112:                                              ; preds = %106
  %113 = load ptr, ptr %10, align 8, !tbaa !19
  %114 = getelementptr inbounds nuw %struct.grep_opt, ptr %113, i32 0, i32 32
  %115 = load i32, ptr %13, align 4, !tbaa !33
  %116 = sext i32 %115 to i64
  %117 = getelementptr inbounds [9 x [75 x i8]], ptr %114, i64 0, i64 %116
  %118 = getelementptr inbounds [75 x i8], ptr %117, i64 0, i64 0
  store ptr %118, ptr %14, align 8, !tbaa !9
  %119 = load ptr, ptr %7, align 8, !tbaa !9
  %120 = icmp ne ptr %119, null
  br i1 %120, label %125, label %121

121:                                              ; preds = %112
  %122 = load ptr, ptr %6, align 8, !tbaa !9
  %123 = call i32 @config_error_nonbool(ptr noundef %122)
  %124 = call i32 @const_error()
  store i32 %124, ptr %5, align 4
  store i32 1, ptr %12, align 4
  br label %129

125:                                              ; preds = %112
  %126 = load ptr, ptr %7, align 8, !tbaa !9
  %127 = load ptr, ptr %14, align 8, !tbaa !9
  %128 = call i32 @color_parse(ptr noundef %126, ptr noundef %127)
  store i32 %128, ptr %5, align 4
  store i32 1, ptr %12, align 4
  br label %129

129:                                              ; preds = %125, %121, %111
  call void @llvm.lifetime.end.p0(i64 8, ptr %14) #11
  call void @llvm.lifetime.end.p0(i64 4, ptr %13) #11
  br label %132

130:                                              ; preds = %103
  br label %131

131:                                              ; preds = %130, %102
  store i32 0, ptr %5, align 4
  store i32 1, ptr %12, align 4
  br label %132

132:                                              ; preds = %131, %129, %101, %94, %65, %55, %45, %35, %25, %20
  call void @llvm.lifetime.end.p0(i64 8, ptr %11) #11
  call void @llvm.lifetime.end.p0(i64 8, ptr %10) #11
  %133 = load i32, ptr %5, align 4
  ret i32 %133
}